; Function Attrs: nounwind uwtable
define ptr @l___private_Lean_Meta_CoeAttr_0__Lean_Meta_reprCoeFnType____x40_Lean_Meta_CoeAttr___hyg_19____boxed(ptr noundef %0, ptr noundef %1) #1 {
  %3 = ptrtoint ptr %0 to i64
  %4 = lshr i64 %3, 1
  %5 = trunc i64 %4 to i8
  %6 = and i64 %3, 1
  %.not = icmp eq i64 %6, 0
  br i1 %.not, label %7, label %lean_dec.exit5

7:                                                ; preds = %2
  %8 = load i32, ptr %0, align 4, !tbaa !4
  %9 = icmp sgt i32 %8, 1
  br i1 %9, label %10, label %12, !prof !9

10:                                               ; preds = %7
  %11 = add nsw i32 %8, -1
  store i32 %11, ptr %0, align 4, !tbaa !4
  br label %lean_dec.exit5

12:                                               ; preds = %7
  %.not.i = icmp eq i32 %8, 0
  br i1 %.not.i, label %lean_dec.exit5, label %13

13:                                               ; preds = %12
  tail call void @lean_dec_ref_cold(ptr noundef nonnull %0) #7
  br label %lean_dec.exit5

lean_dec.exit5:                                   ; preds = %13, %12, %10, %2
  %14 = ptrtoint ptr %1 to i64
  %15 = and i64 %14, 1
  %.not35.i = icmp eq i64 %15, 0
  switch i8 %5, label %22 [
    i8 0, label %16
    i8 1, label %19
  ]

16:                                               ; preds = %lean_dec.exit5
  br i1 %.not35.i, label %lean_nat_le.exit.i, label %17, !prof !15

17:                                               ; preds = %16
  %.not36.i = icmp ult ptr %1, inttoptr (i64 2049 to ptr)
  br i1 %.not36.i, label %l___private_Lean_Meta_CoeAttr_0__Lean_Meta_reprCoeFnType____x40_Lean_Meta_CoeAttr___hyg_19_.exit.thread, label %l___private_Lean_Meta_CoeAttr_0__Lean_Meta_reprCoeFnType____x40_Lean_Meta_CoeAttr___hyg_19_.exit.thread16

lean_nat_le.exit.i:                               ; preds = %16
  %18 = tail call zeroext i1 @lean_nat_big_le(ptr noundef nonnull inttoptr (i64 2049 to ptr), ptr noundef %1) #7
  br i1 %18, label %l___private_Lean_Meta_CoeAttr_0__Lean_Meta_reprCoeFnType____x40_Lean_Meta_CoeAttr___hyg_19_.exit, label %l___private_Lean_Meta_CoeAttr_0__Lean_Meta_reprCoeFnType____x40_Lean_Meta_CoeAttr___hyg_19_.exit.thread12

19:                                               ; preds = %lean_dec.exit5
  br i1 %.not35.i, label %lean_nat_le.exit30.i, label %20, !prof !15

20:                                               ; preds = %19
  %.not.i8 = icmp ult ptr %1, inttoptr (i64 2049 to ptr)
  br i1 %.not.i8, label %l___private_Lean_Meta_CoeAttr_0__Lean_Meta_reprCoeFnType____x40_Lean_Meta_CoeAttr___hyg_19_.exit.thread, label %l___private_Lean_Meta_CoeAttr_0__Lean_Meta_reprCoeFnType____x40_Lean_Meta_CoeAttr___hyg_19_.exit.thread16

lean_nat_le.exit30.i:                             ; preds = %19
  %21 = tail call zeroext i1 @lean_nat_big_le(ptr noundef nonnull inttoptr (i64 2049 to ptr), ptr noundef %1) #7
  br i1 %21, label %l___private_Lean_Meta_CoeAttr_0__Lean_Meta_reprCoeFnType____x40_Lean_Meta_CoeAttr___hyg_19_.exit, label %l___private_Lean_Meta_CoeAttr_0__Lean_Meta_reprCoeFnType____x40_Lean_Meta_CoeAttr___hyg_19_.exit.thread12

22:                                               ; preds = %lean_dec.exit5
  br i1 %.not35.i, label %lean_nat_le.exit33.i, label %23, !prof !15

23:                                               ; preds = %22
  %.not37.i = icmp ult ptr %1, inttoptr (i64 2049 to ptr)
  br i1 %.not37.i, label %l___private_Lean_Meta_CoeAttr_0__Lean_Meta_reprCoeFnType____x40_Lean_Meta_CoeAttr___hyg_19_.exit.thread, label %l___private_Lean_Meta_CoeAttr_0__Lean_Meta_reprCoeFnType____x40_Lean_Meta_CoeAttr___hyg_19_.exit.thread16

lean_nat_le.exit33.i:                             ; preds = %22
  %24 = tail call zeroext i1 @lean_nat_big_le(ptr noundef nonnull inttoptr (i64 2049 to ptr), ptr noundef %1) #7
  br i1 %24, label %l___private_Lean_Meta_CoeAttr_0__Lean_Meta_reprCoeFnType____x40_Lean_Meta_CoeAttr___hyg_19_.exit, label %l___private_Lean_Meta_CoeAttr_0__Lean_Meta_reprCoeFnType____x40_Lean_Meta_CoeAttr___hyg_19_.exit.thread12

l___private_Lean_Meta_CoeAttr_0__Lean_Meta_reprCoeFnType____x40_Lean_Meta_CoeAttr___hyg_19_.exit.thread: ; preds = %17, %20, %23
  %l___private_Lean_Meta_CoeAttr_0__Lean_Meta_reprCoeFnType____x40_Lean_Meta_CoeAttr___hyg_19____closed__18.sink.i.ph = phi ptr [ @l___private_Lean_Meta_CoeAttr_0__Lean_Meta_reprCoeFnType____x40_Lean_Meta_CoeAttr___hyg_19____closed__18, %23 ], [ @l___private_Lean_Meta_CoeAttr_0__Lean_Meta_reprCoeFnType____x40_Lean_Meta_CoeAttr___hyg_19____closed__12, %20 ], [ @l___private_Lean_Meta_CoeAttr_0__Lean_Meta_reprCoeFnType____x40_Lean_Meta_CoeAttr___hyg_19____closed__5, %17 ]
  %25 = load ptr, ptr %l___private_Lean_Meta_CoeAttr_0__Lean_Meta_reprCoeFnType____x40_Lean_Meta_CoeAttr___hyg_19____closed__18.sink.i.ph, align 8, !tbaa !10
  %26 = tail call ptr @l_Repr_addAppParen(ptr noundef %25, ptr noundef %1) #7
  br label %lean_dec.exit

l___private_Lean_Meta_CoeAttr_0__Lean_Meta_reprCoeFnType____x40_Lean_Meta_CoeAttr___hyg_19_.exit.thread16: ; preds = %23, %20, %17
  %l___private_Lean_Meta_CoeAttr_0__Lean_Meta_reprCoeFnType____x40_Lean_Meta_CoeAttr___hyg_19____closed__18.sink.i.ph15 = phi ptr [ @l___private_Lean_Meta_CoeAttr_0__Lean_Meta_reprCoeFnType____x40_Lean_Meta_CoeAttr___hyg_19____closed__20, %23 ], [ @l___private_Lean_Meta_CoeAttr_0__Lean_Meta_reprCoeFnType____x40_Lean_Meta_CoeAttr___hyg_19____closed__14, %20 ], [ @l___private_Lean_Meta_CoeAttr_0__Lean_Meta_reprCoeFnType____x40_Lean_Meta_CoeAttr___hyg_19____closed__8, %17 ]
  %27 = load ptr, ptr %l___private_Lean_Meta_CoeAttr_0__Lean_Meta_reprCoeFnType____x40_Lean_Meta_CoeAttr___hyg_19____closed__18.sink.i.ph15, align 8, !tbaa !10
  %28 = tail call ptr @l_Repr_addAppParen(ptr noundef %27, ptr noundef %1) #7
  br label %lean_dec.exit

l___private_Lean_Meta_CoeAttr_0__Lean_Meta_reprCoeFnType____x40_Lean_Meta_CoeAttr___hyg_19_.exit: ; preds = %lean_nat_le.exit33.i, %lean_nat_le.exit30.i, %lean_nat_le.exit.i
  %l___private_Lean_Meta_CoeAttr_0__Lean_Meta_reprCoeFnType____x40_Lean_Meta_CoeAttr___hyg_19____closed__18.sink.i = phi ptr [ @l___private_Lean_Meta_CoeAttr_0__Lean_Meta_reprCoeFnType____x40_Lean_Meta_CoeAttr___hyg_19____closed__8, %lean_nat_le.exit.i ], [ @l___private_Lean_Meta_CoeAttr_0__Lean_Meta_reprCoeFnType____x40_Lean_Meta_CoeAttr___hyg_19____closed__14, %lean_nat_le.exit30.i ], [ @l___private_Lean_Meta_CoeAttr_0__Lean_Meta_reprCoeFnType____x40_Lean_Meta_CoeAttr___hyg_19____closed__20, %lean_nat_le.exit33.i ]
  br label %l___private_Lean_Meta_CoeAttr_0__Lean_Meta_reprCoeFnType____x40_Lean_Meta_CoeAttr___hyg_19_.exit.thread12

l___private_Lean_Meta_CoeAttr_0__Lean_Meta_reprCoeFnType____x40_Lean_Meta_CoeAttr___hyg_19_.exit.thread12: ; preds = %lean_nat_le.exit33.i, %lean_nat_le.exit30.i, %lean_nat_le.exit.i, %l___private_Lean_Meta_CoeAttr_0__Lean_Meta_reprCoeFnType____x40_Lean_Meta_CoeAttr___hyg_19_.exit
  %l___private_Lean_Meta_CoeAttr_0__Lean_Meta_reprCoeFnType____x40_Lean_Meta_CoeAttr___hyg_19____closed__18.sink.i.sink = phi ptr [ %l___private_Lean_Meta_CoeAttr_0__Lean_Meta_reprCoeFnType____x40_Lean_Meta_CoeAttr___hyg_19____closed__18.sink.i, %l___private_Lean_Meta_CoeAttr_0__Lean_Meta_reprCoeFnType____x40_Lean_Meta_CoeAttr___hyg_19_.exit ], [ @l___private_Lean_Meta_CoeAttr_0__Lean_Meta_reprCoeFnType____x40_Lean_Meta_CoeAttr___hyg_19____closed__18, %lean_nat_le.exit33.i ], [ @l___private_Lean_Meta_CoeAttr_0__Lean_Meta_reprCoeFnType____x40_Lean_Meta_CoeAttr___hyg_19____closed__12, %lean_nat_le.exit30.i ], [ @l___private_Lean_Meta_CoeAttr_0__Lean_Meta_reprCoeFnType____x40_Lean_Meta_CoeAttr___hyg_19____closed__5, %lean_nat_le.exit.i ]
  %29 = load ptr, ptr %l___private_Lean_Meta_CoeAttr_0__Lean_Meta_reprCoeFnType____x40_Lean_Meta_CoeAttr___hyg_19____closed__18.sink.i.sink, align 8, !tbaa !10
  %30 = tail call ptr @l_Repr_addAppParen(ptr noundef %29, ptr noundef %1) #7
  %31 = load i32, ptr %1, align 4, !tbaa !4
  %32 = icmp sgt i32 %31, 1
  br i1 %32, label %33, label %35, !prof !9

33:                                               ; preds = %l___private_Lean_Meta_CoeAttr_0__Lean_Meta_reprCoeFnType____x40_Lean_Meta_CoeAttr___hyg_19_.exit.thread12
  %34 = add nsw i32 %31, -1
  store i32 %34, ptr %1, align 4, !tbaa !4
  br label %lean_dec.exit

35:                                               ; preds = %l___private_Lean_Meta_CoeAttr_0__Lean_Meta_reprCoeFnType____x40_Lean_Meta_CoeAttr___hyg_19_.exit.thread12
  %.not.i6 = icmp eq i32 %31, 0
  br i1 %.not.i6, label %lean_dec.exit, label %36

36:                                               ; preds = %35
  tail call void @lean_dec_ref_cold(ptr noundef nonnull %1) #7
  br label %lean_dec.exit

lean_dec.exit:                                    ; preds = %l___private_Lean_Meta_CoeAttr_0__Lean_Meta_reprCoeFnType____x40_Lean_Meta_CoeAttr___hyg_19_.exit.thread16, %36, %35, %33, %l___private_Lean_Meta_CoeAttr_0__Lean_Meta_reprCoeFnType____x40_Lean_Meta_CoeAttr___hyg_19_.exit.thread
  %37 = phi ptr [ %26, %l___private_Lean_Meta_CoeAttr_0__Lean_Meta_reprCoeFnType____x40_Lean_Meta_CoeAttr___hyg_19_.exit.thread ], [ %30, %33 ], [ %30, %35 ], [ %30, %36 ], [ %28, %l___private_Lean_Meta_CoeAttr_0__Lean_Meta_reprCoeFnType____x40_Lean_Meta_CoeAttr___hyg_19_.exit.thread16 ]
  ret ptr %37
}